; Function Attrs: mustprogress nofree norecurse nosync nounwind memory(read, argmem: readwrite, inaccessiblemem: none) uwtable
define internal noundef i64 @_ZNK5faiss12_GLOBAL__N_118IVFBinaryScannerL2INS_17HammingComputer32EE10scan_codesEmPKhPKlPiPlm(ptr nocapture noundef nonnull readonly align 8 dereferenceable(64) %0, i64 noundef %1, ptr noalias nocapture noundef readonly %2, ptr noalias nocapture noundef readonly %3, ptr noalias nocapture noundef %4, ptr noalias nocapture noundef %5, i64 noundef %6) unnamed_addr #15 align 2 {
  %.not24 = icmp eq i64 %1, 0
  br i1 %.not24, label %._crit_edge, label %.lr.ph

.lr.ph:                                           ; preds = %7
  %8 = getelementptr inbounds i8, ptr %0, i64 8
  %9 = load <4 x i64>, ptr %8, align 8
  %10 = getelementptr inbounds i8, ptr %0, i64 48
  %11 = load i8, ptr %10, align 8
  %12 = and i8 %11, 1
  %.not = icmp eq i8 %12, 0
  %13 = getelementptr inbounds i8, ptr %0, i64 56
  %14 = load i64, ptr %13, align 8
  %15 = shl i64 %14, 32
  %16 = getelementptr inbounds i8, ptr %4, i64 -4
  %17 = getelementptr inbounds i8, ptr %5, i64 -8
  %18 = icmp ult i64 %6, 2
  %.phi.trans.insert.i = getelementptr inbounds i32, ptr %16, i64 %6
  %19 = getelementptr inbounds i8, ptr %0, i64 40
  %20 = load i64, ptr %19, align 8
  br label %21

21:                                               ; preds = %.lr.ph, %75
  %.023 = phi ptr [ %2, %.lr.ph ], [ %76, %75 ]
  %.01722 = phi i64 [ 0, %.lr.ph ], [ %.1, %75 ]
  %.01820 = phi i64 [ 0, %.lr.ph ], [ %77, %75 ]
  %22 = load <4 x i64>, ptr %.023, align 8
  %23 = xor <4 x i64> %9, %22
  %24 = tail call <4 x i64> @llvm.ctpop.v4i64(<4 x i64> %23), !range !210
  %25 = tail call i64 @llvm.vector.reduce.add.v4i64(<4 x i64> %24)
  %26 = trunc i64 %25 to i32
  %27 = load i32, ptr %4, align 4
  %28 = icmp ugt i32 %27, %26
  br i1 %28, label %29, label %75

29:                                               ; preds = %21
  br i1 %.not, label %32, label %30

30:                                               ; preds = %29
  %31 = or i64 %15, %.01820
  br label %35

32:                                               ; preds = %29
  %33 = getelementptr inbounds i64, ptr %3, i64 %.01820
  %34 = load i64, ptr %33, align 8
  br label %35

35:                                               ; preds = %32, %30
  %36 = phi i64 [ %31, %30 ], [ %34, %32 ]
  br i1 %18, label %_ZN5faiss16heap_replace_topINS_4CMaxIilEEEEvmPNT_1TEPNS3_2TIES4_S6_.exit, label %.lr.ph.i

.lr.ph.i:                                         ; preds = %35, %65
  %37 = phi i64 [ %70, %65 ], [ 3, %35 ]
  %38 = phi i64 [ %69, %65 ], [ 2, %35 ]
  %.056.i = phi i64 [ %.1.i, %65 ], [ 1, %35 ]
  %39 = icmp eq i64 %38, %6
  br i1 %39, label %.lr.ph._ZN5faiss4CMaxIilE4cmp2Eiill.exit.thread_crit_edge.i, label %40

.lr.ph._ZN5faiss4CMaxIilE4cmp2Eiill.exit.thread_crit_edge.i: ; preds = %.lr.ph.i
  %.pre.i = load i32, ptr %.phi.trans.insert.i, align 4
  br label %_ZN5faiss4CMaxIilE4cmp2Eiill.exit.thread.i

40:                                               ; preds = %.lr.ph.i
  %41 = getelementptr inbounds i32, ptr %16, i64 %38
  %42 = load i32, ptr %41, align 4
  %43 = getelementptr inbounds i32, ptr %16, i64 %37
  %44 = load i32, ptr %43, align 4
  %45 = getelementptr inbounds i64, ptr %17, i64 %37
  %46 = load i64, ptr %45, align 8
  %47 = icmp sgt i32 %42, %44
  br i1 %47, label %_ZN5faiss4CMaxIilE4cmp2Eiill.exit.thread.i, label %_ZN5faiss4CMaxIilE4cmp2Eiill.exit.i

_ZN5faiss4CMaxIilE4cmp2Eiill.exit.i:              ; preds = %40
  %48 = getelementptr inbounds i64, ptr %17, i64 %38
  %49 = load i64, ptr %48, align 8
  %50 = icmp eq i32 %42, %44
  %51 = icmp sgt i64 %49, %46
  %52 = and i1 %50, %51
  br i1 %52, label %_ZN5faiss4CMaxIilE4cmp2Eiill.exit.thread.i, label %60

_ZN5faiss4CMaxIilE4cmp2Eiill.exit.thread.i:       ; preds = %_ZN5faiss4CMaxIilE4cmp2Eiill.exit.i, %40, %.lr.ph._ZN5faiss4CMaxIilE4cmp2Eiill.exit.thread_crit_edge.i
  %53 = phi i32 [ %.pre.i, %.lr.ph._ZN5faiss4CMaxIilE4cmp2Eiill.exit.thread_crit_edge.i ], [ %42, %40 ], [ %42, %_ZN5faiss4CMaxIilE4cmp2Eiill.exit.i ]
  %54 = icmp slt i32 %53, %26
  br i1 %54, label %_ZN5faiss16heap_replace_topINS_4CMaxIilEEEEvmPNT_1TEPNS3_2TIES4_S6_.exit, label %_ZN5faiss4CMaxIilE4cmp2Eiill.exit54.i

_ZN5faiss4CMaxIilE4cmp2Eiill.exit54.i:            ; preds = %_ZN5faiss4CMaxIilE4cmp2Eiill.exit.thread.i
  %55 = getelementptr inbounds i64, ptr %17, i64 %38
  %56 = load i64, ptr %55, align 8
  %57 = icmp eq i32 %53, %26
  %58 = icmp slt i64 %56, %36
  %59 = and i1 %57, %58
  br i1 %59, label %_ZN5faiss16heap_replace_topINS_4CMaxIilEEEEvmPNT_1TEPNS3_2TIES4_S6_.exit, label %65

60:                                               ; preds = %_ZN5faiss4CMaxIilE4cmp2Eiill.exit.i
  %61 = icmp slt i32 %44, %26
  br i1 %61, label %_ZN5faiss16heap_replace_topINS_4CMaxIilEEEEvmPNT_1TEPNS3_2TIES4_S6_.exit, label %_ZN5faiss4CMaxIilE4cmp2Eiill.exit55.i

_ZN5faiss4CMaxIilE4cmp2Eiill.exit55.i:            ; preds = %60
  %62 = icmp eq i32 %44, %26
  %63 = icmp slt i64 %46, %36
  %64 = and i1 %62, %63
  br i1 %64, label %_ZN5faiss16heap_replace_topINS_4CMaxIilEEEEvmPNT_1TEPNS3_2TIES4_S6_.exit, label %65

65:                                               ; preds = %_ZN5faiss4CMaxIilE4cmp2Eiill.exit55.i, %_ZN5faiss4CMaxIilE4cmp2Eiill.exit54.i
  %66 = phi i64 [ %56, %_ZN5faiss4CMaxIilE4cmp2Eiill.exit54.i ], [ %46, %_ZN5faiss4CMaxIilE4cmp2Eiill.exit55.i ]
  %.sink.i = phi i32 [ %53, %_ZN5faiss4CMaxIilE4cmp2Eiill.exit54.i ], [ %44, %_ZN5faiss4CMaxIilE4cmp2Eiill.exit55.i ]
  %.1.i = phi i64 [ %38, %_ZN5faiss4CMaxIilE4cmp2Eiill.exit54.i ], [ %37, %_ZN5faiss4CMaxIilE4cmp2Eiill.exit55.i ]
  %67 = getelementptr inbounds i32, ptr %16, i64 %.056.i
  store i32 %.sink.i, ptr %67, align 4
  %68 = getelementptr inbounds i64, ptr %17, i64 %.056.i
  store i64 %66, ptr %68, align 8
  %69 = shl i64 %.1.i, 1
  %70 = or disjoint i64 %69, 1
  %71 = icmp ugt i64 %69, %6
  br i1 %71, label %_ZN5faiss16heap_replace_topINS_4CMaxIilEEEEvmPNT_1TEPNS3_2TIES4_S6_.exit, label %.lr.ph.i, !llvm.loop !208

_ZN5faiss16heap_replace_topINS_4CMaxIilEEEEvmPNT_1TEPNS3_2TIES4_S6_.exit: ; preds = %_ZN5faiss4CMaxIilE4cmp2Eiill.exit.thread.i, %_ZN5faiss4CMaxIilE4cmp2Eiill.exit54.i, %60, %_ZN5faiss4CMaxIilE4cmp2Eiill.exit55.i, %65, %35
  %.0.lcssa.i = phi i64 [ 1, %35 ], [ %.1.i, %65 ], [ %.056.i, %_ZN5faiss4CMaxIilE4cmp2Eiill.exit54.i ], [ %.056.i, %_ZN5faiss4CMaxIilE4cmp2Eiill.exit55.i ], [ %.056.i, %_ZN5faiss4CMaxIilE4cmp2Eiill.exit.thread.i ], [ %.056.i, %60 ]
  %72 = getelementptr inbounds i32, ptr %16, i64 %.0.lcssa.i
  store i32 %26, ptr %72, align 4
  %73 = getelementptr inbounds i64, ptr %17, i64 %.0.lcssa.i
  store i64 %36, ptr %73, align 8
  %74 = add i64 %.01722, 1
  br label %75

75:                                               ; preds = %_ZN5faiss16heap_replace_topINS_4CMaxIilEEEEvmPNT_1TEPNS3_2TIES4_S6_.exit, %21
  %.1 = phi i64 [ %74, %_ZN5faiss16heap_replace_topINS_4CMaxIilEEEEvmPNT_1TEPNS3_2TIES4_S6_.exit ], [ %.01722, %21 ]
  %76 = getelementptr inbounds i8, ptr %.023, i64 %20
  %77 = add nuw i64 %.01820, 1
  %exitcond.not = icmp eq i64 %77, %1
  br i1 %exitcond.not, label %._crit_edge, label %21, !llvm.loop !217

._crit_edge:                                      ; preds = %75, %7
  %.017.lcssa = phi i64 [ 0, %7 ], [ %.1, %75 ]
  ret i64 %.017.lcssa
}